; ModuleID = '20/469.c'
source_filename = "20/469.c"
target datalayout = "e-m:e-p270:32:32-p271:32:32-p272:64:64-i64:64-f80:128-n8:16:32:64-S128"
target triple = "x86_64-pc-linux-gnu"

@.str = private unnamed_addr constant [3 x i8] c"%c\00", align 1
@.str.1 = private unnamed_addr constant [3 x i8] c"%s\00", align 1
@.str.2 = private unnamed_addr constant [2 x i8] c"\0A\00", align 1
@.str.3 = private unnamed_addr constant [5 x i8] c"%s%s\00", align 1

; Function Attrs: noinline nounwind uwtable
define dso_local void @guocheng(i8* %0, i8* %1) #0 {
  %3 = alloca i8*, align 8
  %4 = alloca i8*, align 8
  %5 = alloca i32, align 4
  %6 = alloca i32, align 4
  %7 = alloca i32, align 4
  %8 = alloca i32, align 4
  store i8* %0, i8** %3, align 8
  store i8* %1, i8** %4, align 8
  store i32 0, i32* %6, align 4
  store i32 0, i32* %5, align 4
  br label %9

9:                                                ; preds = %33, %2
  %10 = load i32, i32* %5, align 4
  %11 = sext i32 %10 to i64
  %12 = load i8*, i8** %3, align 8
  %13 = call i64 @strlen(i8* %12) #3
  %14 = icmp ult i64 %11, %13
  br i1 %14, label %15, label %36

15:                                               ; preds = %9
  %16 = load i8*, i8** %3, align 8
  %17 = load i32, i32* %5, align 4
  %18 = sext i32 %17 to i64
  %19 = getelementptr inbounds i8, i8* %16, i64 %18
  %20 = load i8, i8* %19, align 1
  %21 = sext i8 %20 to i32
  %22 = load i32, i32* %6, align 4
  %23 = icmp sgt i32 %21, %22
  br i1 %23, label %24, label %32

24:                                               ; preds = %15
  %25 = load i8*, i8** %3, align 8
  %26 = load i32, i32* %5, align 4
  %27 = sext i32 %26 to i64
  %28 = getelementptr inbounds i8, i8* %25, i64 %27
  %29 = load i8, i8* %28, align 1
  %30 = sext i8 %29 to i32
  store i32 %30, i32* %6, align 4
  %31 = load i32, i32* %5, align 4
  store i32 %31, i32* %7, align 4
  br label %32

32:                                               ; preds = %24, %15
  br label %33

33:                                               ; preds = %32
  %34 = load i32, i32* %5, align 4
  %35 = add nsw i32 %34, 1
  store i32 %35, i32* %5, align 4
  br label %9

36:                                               ; preds = %9
  store i32 0, i32* %8, align 4
  br label %37

37:                                               ; preds = %49, %36
  %38 = load i32, i32* %8, align 4
  %39 = load i32, i32* %7, align 4
  %40 = icmp sle i32 %38, %39
  br i1 %40, label %41, label %52

41:                                               ; preds = %37
  %42 = load i8*, i8** %3, align 8
  %43 = load i32, i32* %8, align 4
  %44 = sext i32 %43 to i64
  %45 = getelementptr inbounds i8, i8* %42, i64 %44
  %46 = load i8, i8* %45, align 1
  %47 = sext i8 %46 to i32
  %48 = call i32 (i8*, ...) @printf(i8* getelementptr inbounds ([3 x i8], [3 x i8]* @.str, i64 0, i64 0), i32 %47)
  br label %49

49:                                               ; preds = %41
  %50 = load i32, i32* %8, align 4
  %51 = add nsw i32 %50, 1
  store i32 %51, i32* %8, align 4
  br label %37

52:                                               ; preds = %37
  %53 = load i8*, i8** %4, align 8
  %54 = call i32 (i8*, ...) @printf(i8* getelementptr inbounds ([3 x i8], [3 x i8]* @.str.1, i64 0, i64 0), i8* %53)
  %55 = load i32, i32* %7, align 4
  %56 = add nsw i32 %55, 1
  store i32 %56, i32* %8, align 4
  br label %57

57:                                               ; preds = %71, %52
  %58 = load i32, i32* %8, align 4
  %59 = sext i32 %58 to i64
  %60 = load i8*, i8** %3, align 8
  %61 = call i64 @strlen(i8* %60) #3
  %62 = icmp ult i64 %59, %61
  br i1 %62, label %63, label %74

63:                                               ; preds = %57
  %64 = load i8*, i8** %3, align 8
  %65 = load i32, i32* %8, align 4
  %66 = sext i32 %65 to i64
  %67 = getelementptr inbounds i8, i8* %64, i64 %66
  %68 = load i8, i8* %67, align 1
  %69 = sext i8 %68 to i32
  %70 = call i32 (i8*, ...) @printf(i8* getelementptr inbounds ([3 x i8], [3 x i8]* @.str, i64 0, i64 0), i32 %69)
  br label %71

71:                                               ; preds = %63
  %72 = load i32, i32* %8, align 4
  %73 = add nsw i32 %72, 1
  store i32 %73, i32* %8, align 4
  br label %57

74:                                               ; preds = %57
  %75 = call i32 (i8*, ...) @printf(i8* getelementptr inbounds ([2 x i8], [2 x i8]* @.str.2, i64 0, i64 0))
  ret void
}

; Function Attrs: nounwind readonly
declare dso_local i64 @strlen(i8*) #1

declare dso_local i32 @printf(i8*, ...) #2

; Function Attrs: noinline nounwind uwtable
define dso_local i32 @main() #0 {
  %1 = alloca i32, align 4
  %2 = alloca [100 x [10 x i8]], align 16
  %3 = alloca [100 x [3 x i8]], align 16
  %4 = alloca i32, align 4
  store i32 0, i32* %1, align 4
  store i32 0, i32* %4, align 4
  br label %5

5:                                                ; preds = %17, %0
  br label %6

6:                                                ; preds = %5
  %7 = load i32, i32* %4, align 4
  %8 = sext i32 %7 to i64
  %9 = getelementptr inbounds [100 x [10 x i8]], [100 x [10 x i8]]* %2, i64 0, i64 %8
  %10 = getelementptr inbounds [10 x i8], [10 x i8]* %9, i64 0, i64 0
  %11 = load i32, i32* %4, align 4
  %12 = sext i32 %11 to i64
  %13 = getelementptr inbounds [100 x [3 x i8]], [100 x [3 x i8]]* %3, i64 0, i64 %12
  %14 = getelementptr inbounds [3 x i8], [3 x i8]* %13, i64 0, i64 0
  %15 = call i32 (i8*, ...) @__isoc99_scanf(i8* getelementptr inbounds ([5 x i8], [5 x i8]* @.str.3, i64 0, i64 0), i8* %10, i8* %14)
  %16 = icmp ne i32 %15, -1
  br i1 %16, label %17, label %28

17:                                               ; preds = %6
  %18 = load i32, i32* %4, align 4
  %19 = sext i32 %18 to i64
  %20 = getelementptr inbounds [100 x [10 x i8]], [100 x [10 x i8]]* %2, i64 0, i64 %19
  %21 = getelementptr inbounds [10 x i8], [10 x i8]* %20, i64 0, i64 0
  %22 = load i32, i32* %4, align 4
  %23 = sext i32 %22 to i64
  %24 = getelementptr inbounds [100 x [3 x i8]], [100 x [3 x i8]]* %3, i64 0, i64 %23
  %25 = getelementptr inbounds [3 x i8], [3 x i8]* %24, i64 0, i64 0
  call void @guocheng(i8* %21, i8* %25)
  %26 = load i32, i32* %4, align 4
  %27 = add nsw i32 %26, 1
  store i32 %27, i32* %4, align 4
  br label %5

28:                                               ; preds = %6
  %29 = load i32, i32* %1, align 4
  ret i32 %29
}

declare dso_local i32 @__isoc99_scanf(i8*, ...) #2


!llvm.module.flags = !{!0}
!llvm.ident = !{!1}

!0 = !{i32 1, !"wchar_size", i32 4}
!1 = !{!"clang version 10.0.0-4ubuntu1 "}
